target datalayout = "e-m:e-p270:32:32-p271:32:32-p272:64:64-i64:64-i128:128-f80:128-n8:16:32:64-S128"
target triple = "x86_64-pc-linux-gnu"

%struct.RelfilenumberMapKey = type { i32, i32 }
%struct.RelfilenumberMapEntry = type { %struct.RelfilenumberMapKey, i32 }
%struct.HASH_SEQ_STATUS = type { ptr, i32, ptr, i8, i32 }

@RelfilenumberMapHash = internal global ptr null, align 8
@.str.1 = private unnamed_addr constant [19 x i8] c"relfilenumbermap.c\00", align 1
@.str.4 = private unnamed_addr constant [21 x i8] c"hash table corrupted\00", align 1
@__func__.RelfilenumberMapInvalidateCallback = private unnamed_addr constant [35 x i8] c"RelfilenumberMapInvalidateCallback\00", align 1

; Function Attrs: nounwind uwtable
define internal void @RelfilenumberMapInvalidateCallback(i64 noundef %0, i32 noundef %1) #0 {
  %3 = alloca i64, align 8
  %4 = alloca i32, align 4
  %5 = alloca %struct.HASH_SEQ_STATUS, align 8
  %6 = alloca ptr, align 8
  store i64 %0, ptr %3, align 8
  store i32 %1, ptr %4, align 4
  call void @llvm.lifetime.start.p0(i64 32, ptr %5) #7
  call void @llvm.lifetime.start.p0(i64 8, ptr %6) #7
  %7 = load ptr, ptr @RelfilenumberMapHash, align 8
  call void @hash_seq_init(ptr noundef %5, ptr noundef %7)
  br label %8

8:                                                ; preds = %43, %2
  %9 = call ptr @hash_seq_search(ptr noundef %5)
  store ptr %9, ptr %6, align 8
  %10 = icmp ne ptr %9, null
  br i1 %10, label %11, label %44

11:                                               ; preds = %8
  %12 = load i32, ptr %4, align 4
  %13 = icmp eq i32 %12, 0
  br i1 %13, label %25, label %14

14:                                               ; preds = %11
  %15 = load ptr, ptr %6, align 8
  %16 = getelementptr inbounds nuw %struct.RelfilenumberMapEntry, ptr %15, i32 0, i32 1
  %17 = load i32, ptr %16, align 4
  %18 = icmp eq i32 %17, 0
  br i1 %18, label %25, label %19

19:                                               ; preds = %14
  %20 = load ptr, ptr %6, align 8
  %21 = getelementptr inbounds nuw %struct.RelfilenumberMapEntry, ptr %20, i32 0, i32 1
  %22 = load i32, ptr %21, align 4
  %23 = load i32, ptr %4, align 4
  %24 = icmp eq i32 %22, %23
  br i1 %24, label %25, label %43

25:                                               ; preds = %19, %14, %11
  %26 = load ptr, ptr @RelfilenumberMapHash, align 8
  %27 = load ptr, ptr %6, align 8
  %28 = getelementptr inbounds nuw %struct.RelfilenumberMapEntry, ptr %27, i32 0, i32 0
  %29 = call ptr @hash_search(ptr noundef %26, ptr noundef %28, i32 noundef 2, ptr noundef null)
  %30 = icmp eq ptr %29, null
  br i1 %30, label %31, label %42

31:                                               ; preds = %25
  br label %32

32:                                               ; preds = %31
  br i1 true, label %33, label %35

33:                                               ; preds = %32
  %34 = call zeroext i1 @errstart_cold(i32 noundef 21, ptr noundef null) #8
  br i1 %34, label %37, label %39

35:                                               ; preds = %32
  %36 = call zeroext i1 @errstart(i32 noundef 21, ptr noundef null)
  br i1 %36, label %37, label %39

37:                                               ; preds = %35, %33
  %38 = call i32 (ptr, ...) @errmsg_internal(ptr noundef @.str.4)
  call void @errfinish(ptr noundef @.str.1, i32 noundef 76, ptr noundef @__func__.RelfilenumberMapInvalidateCallback)
  br label %39

39:                                               ; preds = %37, %35, %33
  unreachable

40:                                               ; No predecessors!
  br label %41

41:                                               ; preds = %40
  br label %42

42:                                               ; preds = %41, %25
  br label %43

43:                                               ; preds = %42, %19
  br label %8, !llvm.loop !11

44:                                               ; preds = %8
  call void @llvm.lifetime.end.p0(i64 8, ptr %6) #7
  call void @llvm.lifetime.end.p0(i64 32, ptr %5) #7
  ret void
}