; Function Attrs: nounwind uwtable
define internal void @RelfilenumberMapInvalidateCallback(i64 %0, i32 noundef %1) #0 {
  %3 = alloca %struct.HASH_SEQ_STATUS, align 8
  call void @llvm.lifetime.start.p0(i64 32, ptr nonnull %3) #7
  %4 = load ptr, ptr @RelfilenumberMapHash, align 8
  call void @hash_seq_init(ptr noundef nonnull %3, ptr noundef %4) #7
  %5 = call ptr @hash_seq_search(ptr noundef nonnull %3) #7
  %.not6 = icmp eq ptr %5, null
  br i1 %.not6, label %._crit_edge, label %.lr.ph

.lr.ph:                                           ; preds = %2
  %6 = icmp eq i32 %1, 0
  br i1 %6, label %.lr.ph.split.us, label %.lr.ph.split

.lr.ph.split.us:                                  ; preds = %.lr.ph, %11
  %7 = phi ptr [ %12, %11 ], [ %5, %.lr.ph ]
  %8 = load ptr, ptr @RelfilenumberMapHash, align 8
  %9 = call ptr @hash_search(ptr noundef %8, ptr noundef nonnull %7, i32 noundef 2, ptr noundef null) #7
  %10 = icmp eq ptr %9, null
  br i1 %10, label %.split.us, label %11

11:                                               ; preds = %.lr.ph.split.us
  %12 = call ptr @hash_seq_search(ptr noundef nonnull %3) #7
  %.not.us = icmp eq ptr %12, null
  br i1 %.not.us, label %._crit_edge, label %.lr.ph.split.us, !llvm.loop !8

.lr.ph.split:                                     ; preds = %.lr.ph, %24
  %13 = phi ptr [ %25, %24 ], [ %5, %.lr.ph ]
  %14 = getelementptr inbounds nuw i8, ptr %13, i64 8
  %15 = load i32, ptr %14, align 4
  %16 = icmp eq i32 %15, 0
  %17 = icmp eq i32 %15, %1
  %or.cond = or i1 %16, %17
  br i1 %or.cond, label %18, label %24

18:                                               ; preds = %.lr.ph.split
  %19 = load ptr, ptr @RelfilenumberMapHash, align 8
  %20 = call ptr @hash_search(ptr noundef %19, ptr noundef nonnull %13, i32 noundef 2, ptr noundef null) #7
  %21 = icmp eq ptr %20, null
  br i1 %21, label %.split.us, label %24

.split.us:                                        ; preds = %18, %.lr.ph.split.us
  %22 = call zeroext i1 @errstart_cold(i32 noundef 21, ptr noundef null) #8
  call void @llvm.assume(i1 %22)
  %23 = call i32 (ptr, ...) @errmsg_internal(ptr noundef nonnull @.str.4) #7
  call void @errfinish(ptr noundef nonnull @.str.1, i32 noundef 76, ptr noundef nonnull @__func__.RelfilenumberMapInvalidateCallback) #7
  unreachable

24:                                               ; preds = %.lr.ph.split, %18
  %25 = call ptr @hash_seq_search(ptr noundef nonnull %3) #7
  %.not = icmp eq ptr %25, null
  br i1 %.not, label %._crit_edge, label %.lr.ph.split, !llvm.loop !8

._crit_edge:                                      ; preds = %24, %11, %2
  call void @llvm.lifetime.end.p0(i64 32, ptr nonnull %3) #7
  ret void
}